target datalayout = "e-m:e-p270:32:32-p271:32:32-p272:64:64-i64:64-i128:128-f80:128-n8:16:32:64-S128"
target triple = "x86_64-pc-linux-gnu"

%struct.H5F_t = type { ptr, ptr, ptr, ptr, i32, ptr, i8, i8, ptr, i32 }
%struct.H5FO_obj_count_t = type { i64, i64 }

@.str = private unnamed_addr constant [98 x i8] c"generated/home/dtcxzyw/WorkSpace/Projects/compilers/llvm-opt-benchmark/bench/hdf5/hdf5/src/H5FO.c\00", align 1
@H5E_CACHE_g = external global i64, align 8
@H5E_CANTRELEASE_g = external global i64, align 8
@.str.4 = private unnamed_addr constant [35 x i8] c"can't remove object from container\00", align 1
@__func__.H5FO_top_decr = private unnamed_addr constant [14 x i8] c"H5FO_top_decr\00", align 1
@H5E_NOTFOUND_g = external global i64, align 8
@.str.8 = private unnamed_addr constant [27 x i8] c"can't decrement ref. count\00", align 1
@H5_H5FO_obj_count_t_reg_free_list = internal global { i8, [3 x i8], i32, i32, [4 x i8], ptr, i64, ptr } { i8 0, [3 x i8] zeroinitializer, i32 0, i32 0, [4 x i8] zeroinitializer, ptr @.str.11, i64 16, ptr null }, align 8

; Function Attrs: nounwind uwtable
define i32 @H5FO_top_decr(ptr noundef %0, i64 noundef %1) #0 {
  %3 = alloca ptr, align 8
  %4 = alloca i64, align 8
  %5 = alloca ptr, align 8
  %6 = alloca i32, align 4
  %7 = alloca i8, align 1
  store ptr %0, ptr %3, align 8, !tbaa !3
  store i64 %1, ptr %4, align 8, !tbaa !39
  call void @llvm.lifetime.start.p0(i64 8, ptr %5) #3
  call void @llvm.lifetime.start.p0(i64 4, ptr %6) #3
  store i32 0, ptr %6, align 4, !tbaa !8
  call void @llvm.lifetime.start.p0(i64 1, ptr %7) #3
  store i8 0, ptr %7, align 1, !tbaa !10
  %8 = load ptr, ptr %3, align 8, !tbaa !3
  %9 = getelementptr inbounds nuw %struct.H5F_t, ptr %8, i32 0, i32 5
  %10 = load ptr, ptr %9, align 8, !tbaa !49
  %11 = call ptr @H5SL_search(ptr noundef %10, ptr noundef %4)
  store ptr %11, ptr %5, align 8, !tbaa !50
  %12 = icmp ne ptr null, %11
  br i1 %12, label %13, label %51

13:                                               ; preds = %2
  %14 = load ptr, ptr %5, align 8, !tbaa !50
  %15 = getelementptr inbounds nuw %struct.H5FO_obj_count_t, ptr %14, i32 0, i32 1
  %16 = load i64, ptr %15, align 8, !tbaa !52
  %17 = add i64 %16, -1
  store i64 %17, ptr %15, align 8, !tbaa !52
  %18 = load ptr, ptr %5, align 8, !tbaa !50
  %19 = getelementptr inbounds nuw %struct.H5FO_obj_count_t, ptr %18, i32 0, i32 1
  %20 = load i64, ptr %19, align 8, !tbaa !52
  %21 = icmp eq i64 %20, 0
  br i1 %21, label %22, label %50

22:                                               ; preds = %13
  %23 = load ptr, ptr %3, align 8, !tbaa !3
  %24 = getelementptr inbounds nuw %struct.H5F_t, ptr %23, i32 0, i32 5
  %25 = load ptr, ptr %24, align 8, !tbaa !49
  %26 = call ptr @H5SL_remove(ptr noundef %25, ptr noundef %4)
  store ptr %26, ptr %5, align 8, !tbaa !50
  %27 = icmp eq ptr null, %26
  br i1 %27, label %28, label %47

28:                                               ; preds = %22
  br label %29

29:                                               ; preds = %28
  br label %30

30:                                               ; preds = %29
  br label %31

31:                                               ; preds = %30
  %32 = load i64, ptr @H5E_CACHE_g, align 8, !tbaa !39
  %33 = load i64, ptr @H5E_CANTRELEASE_g, align 8, !tbaa !39
  %34 = call i32 (ptr, ptr, i32, i64, i64, ptr, ...) @H5E_printf_stack(ptr noundef @.str, ptr noundef @__func__.H5FO_top_decr, i32 noundef 495, i64 noundef %32, i64 noundef %33, ptr noundef @.str.4)
  br label %35

35:                                               ; preds = %31
  br label %36

36:                                               ; preds = %35
  store i8 1, ptr %7, align 1, !tbaa !10
  %37 = load i8, ptr %7, align 1, !tbaa !10, !range !40, !noundef !41
  %38 = trunc i8 %37 to i1
  %39 = zext i1 %38 to i8
  store i8 %39, ptr %7, align 1, !tbaa !10
  br label %40

40:                                               ; preds = %36
  br label %41

41:                                               ; preds = %40
  br label %42

42:                                               ; preds = %41
  store i32 -1, ptr %6, align 4, !tbaa !8
  br label %71

43:                                               ; No predecessors!
  br label %44

44:                                               ; preds = %43
  br label %45

45:                                               ; preds = %44
  br label %46

46:                                               ; preds = %45
  br label %47

47:                                               ; preds = %46, %22
  %48 = load ptr, ptr %5, align 8, !tbaa !50
  %49 = call ptr @H5FL_reg_free(ptr noundef @H5_H5FO_obj_count_t_reg_free_list, ptr noundef %48)
  store ptr %49, ptr %5, align 8, !tbaa !50
  br label %50

50:                                               ; preds = %47, %13
  br label %70

51:                                               ; preds = %2
  br label %52

52:                                               ; preds = %51
  br label %53

53:                                               ; preds = %52
  br label %54

54:                                               ; preds = %53
  %55 = load i64, ptr @H5E_CACHE_g, align 8, !tbaa !39
  %56 = load i64, ptr @H5E_NOTFOUND_g, align 8, !tbaa !39
  %57 = call i32 (ptr, ptr, i32, i64, i64, ptr, ...) @H5E_printf_stack(ptr noundef @.str, ptr noundef @__func__.H5FO_top_decr, i32 noundef 502, i64 noundef %55, i64 noundef %56, ptr noundef @.str.8)
  br label %58

58:                                               ; preds = %54
  br label %59

59:                                               ; preds = %58
  store i8 1, ptr %7, align 1, !tbaa !10
  %60 = load i8, ptr %7, align 1, !tbaa !10, !range !40, !noundef !41
  %61 = trunc i8 %60 to i1
  %62 = zext i1 %61 to i8
  store i8 %62, ptr %7, align 1, !tbaa !10
  br label %63

63:                                               ; preds = %59
  br label %64

64:                                               ; preds = %63
  br label %65

65:                                               ; preds = %64
  store i32 -1, ptr %6, align 4, !tbaa !8
  br label %71

66:                                               ; No predecessors!
  br label %67

67:                                               ; preds = %66
  br label %68

68:                                               ; preds = %67
  br label %69

69:                                               ; preds = %68
  br label %70

70:                                               ; preds = %69, %50
  br label %71

71:                                               ; preds = %70, %65, %42
  %72 = load i32, ptr %6, align 4, !tbaa !8
  call void @llvm.lifetime.end.p0(i64 1, ptr %7) #3
  call void @llvm.lifetime.end.p0(i64 4, ptr %6) #3
  call void @llvm.lifetime.end.p0(i64 8, ptr %5) #3
  ret i32 %72
}