; Function Attrs: nounwind uwtable
define range(i32 -1, 1) i32 @H5FO_top_decr(ptr noundef readonly captures(none) %0, i64 noundef %1) local_unnamed_addr #0 {
  %3 = alloca i64, align 8
  store i64 %1, ptr %3, align 8, !tbaa !36
  %4 = getelementptr inbounds nuw i8, ptr %0, i64 40
  %5 = load ptr, ptr %4, align 8, !tbaa !43
  %6 = call ptr @H5SL_search(ptr noundef %5, ptr noundef nonnull %3) #2
  %.not = icmp eq ptr %6, null
  br i1 %.not, label %22, label %7

7:                                                ; preds = %2
  %8 = getelementptr inbounds nuw i8, ptr %6, i64 8
  %9 = load i64, ptr %8, align 8, !tbaa !44
  %10 = add i64 %9, -1
  store i64 %10, ptr %8, align 8, !tbaa !44
  %11 = icmp eq i64 %10, 0
  br i1 %11, label %12, label %26

12:                                               ; preds = %7
  %13 = load ptr, ptr %4, align 8, !tbaa !43
  %14 = call ptr @H5SL_remove(ptr noundef %13, ptr noundef nonnull %3) #2
  %15 = icmp eq ptr %14, null
  br i1 %15, label %16, label %20

16:                                               ; preds = %12
  %17 = load i64, ptr @H5E_CACHE_g, align 8, !tbaa !36
  %18 = load i64, ptr @H5E_CANTRELEASE_g, align 8, !tbaa !36
  %19 = call i32 (ptr, ptr, i32, i64, i64, ptr, ...) @H5E_printf_stack(ptr noundef nonnull @.str, ptr noundef nonnull @__func__.H5FO_top_decr, i32 noundef 495, i64 noundef %17, i64 noundef %18, ptr noundef nonnull @.str.4) #2
  br label %26

20:                                               ; preds = %12
  %21 = call ptr @H5FL_reg_free(ptr noundef nonnull @H5_H5FO_obj_count_t_reg_free_list, ptr noundef nonnull %14) #2
  br label %26

22:                                               ; preds = %2
  %23 = load i64, ptr @H5E_CACHE_g, align 8, !tbaa !36
  %24 = load i64, ptr @H5E_NOTFOUND_g, align 8, !tbaa !36
  %25 = call i32 (ptr, ptr, i32, i64, i64, ptr, ...) @H5E_printf_stack(ptr noundef nonnull @.str, ptr noundef nonnull @__func__.H5FO_top_decr, i32 noundef 502, i64 noundef %23, i64 noundef %24, ptr noundef nonnull @.str.8) #2
  br label %26

26:                                               ; preds = %20, %7, %22, %16
  %.0 = phi i32 [ -1, %16 ], [ 0, %20 ], [ 0, %7 ], [ -1, %22 ]
  ret i32 %.0
}